; Function Attrs: mustprogress nounwind uwtable
define noundef ptr @_ZN4pkpy12pool64_allocEm(i64 noundef %0) local_unnamed_addr #3 personality ptr @__gxx_personality_v0 {
  %2 = invoke noundef ptr @_ZN4pkpy10MemoryPoolILi64EE5allocEm(ptr noundef nonnull align 8 dereferenceable(80) @_ZN4pkpyL6pool64E, i64 noundef %0)
          to label %3 unwind label %4

3:                                                ; preds = %1
  ret ptr %2

4:                                                ; preds = %1
  %5 = landingpad { ptr, i32 }
          catch ptr null
  %6 = extractvalue { ptr, i32 } %5, 0
  tail call void @__clang_call_terminate(ptr %6) #15
  unreachable
}